target datalayout = "e-m:e-p270:32:32-p271:32:32-p272:64:64-i64:64-i128:128-f80:128-n8:16:32:64-S128"
target triple = "x86_64-pc-linux-gnu"

%struct.FT_Vector_ = type { i64, i64 }
%struct.FT_GlyphSlotRec_ = type { ptr, ptr, ptr, i32, %struct.FT_Generic_, %struct.FT_Glyph_Metrics_, i64, i64, %struct.FT_Vector_, i32, %struct.FT_Bitmap_, i32, i32, %struct.FT_Outline_, i32, ptr, ptr, i64, i64, i64, ptr, ptr }
%struct.FT_Generic_ = type { ptr, ptr }
%struct.FT_Glyph_Metrics_ = type { i64, i64, i64, i64, i64, i64, i64, i64 }
%struct.FT_Bitmap_ = type { i32, i32, i32, ptr, i16, i8, i8, ptr }
%struct.FT_Outline_ = type { i16, i16, ptr, ptr, ptr, i32 }
%struct.FT_Matrix_ = type { i64, i64, i64, i64 }
%struct.FT_SVG_DocumentRec_ = type { ptr, i64, %struct.FT_Size_Metrics_, i16, i16, i16, %struct.FT_Matrix_, %struct.FT_Vector_ }
%struct.FT_Size_Metrics_ = type { i16, i16, i64, i64, i64, i64, i64, i64 }

; Function Attrs: inlinehint nounwind uwtable
define internal i32 @FT_MulFix_x86_64(i32 noundef %0, i32 noundef %1) #5 {
  %3 = alloca i32, align 4
  %4 = alloca i32, align 4
  %5 = alloca i64, align 8
  %6 = alloca i64, align 8
  store i32 %0, ptr %3, align 4, !tbaa !10
  store i32 %1, ptr %4, align 4, !tbaa !10
  call void @llvm.lifetime.start.p0(i64 8, ptr %5) #6
  call void @llvm.lifetime.start.p0(i64 8, ptr %6) #6
  %7 = load i32, ptr %3, align 4, !tbaa !10
  %8 = sext i32 %7 to i64
  %9 = load i32, ptr %4, align 4, !tbaa !10
  %10 = sext i32 %9 to i64
  %11 = mul nsw i64 %8, %10
  store i64 %11, ptr %5, align 8, !tbaa !86
  %12 = load i64, ptr %5, align 8, !tbaa !86
  %13 = ashr i64 %12, 63
  store i64 %13, ptr %6, align 8, !tbaa !86
  %14 = load i64, ptr %6, align 8, !tbaa !86
  %15 = add nsw i64 32768, %14
  %16 = load i64, ptr %5, align 8, !tbaa !86
  %17 = add nsw i64 %16, %15
  store i64 %17, ptr %5, align 8, !tbaa !86
  %18 = load i64, ptr %5, align 8, !tbaa !86
  %19 = ashr i64 %18, 16
  %20 = trunc i64 %19 to i32
  call void @llvm.lifetime.end.p0(i64 8, ptr %6) #6
  call void @llvm.lifetime.end.p0(i64 8, ptr %5) #6
  ret i32 %20
}

; Function Attrs: nounwind uwtable
define internal i32 @ft_svg_transform(ptr noundef %0, ptr noundef %1, ptr noundef %2, ptr noundef %3) #0 {
  %5 = alloca ptr, align 8
  %6 = alloca ptr, align 8
  %7 = alloca ptr, align 8
  %8 = alloca ptr, align 8
  %9 = alloca ptr, align 8
  %10 = alloca ptr, align 8
  %11 = alloca ptr, align 8
  %12 = alloca %struct.FT_Matrix_, align 8
  %13 = alloca %struct.FT_Vector_, align 8
  %14 = alloca %struct.FT_Matrix_, align 8
  %15 = alloca %struct.FT_Matrix_, align 8
  %16 = alloca i64, align 8
  %17 = alloca i64, align 8
  store ptr %0, ptr %5, align 8, !tbaa !29
  store ptr %1, ptr %6, align 8, !tbaa !31
  store ptr %2, ptr %7, align 8, !tbaa !65
  store ptr %3, ptr %8, align 8, !tbaa !33
  call void @llvm.lifetime.start.p0(i64 8, ptr %9) #6
  %18 = load ptr, ptr %6, align 8, !tbaa !31
  %19 = getelementptr inbounds nuw %struct.FT_GlyphSlotRec_, ptr %18, i32 0, i32 20
  %20 = load ptr, ptr %19, align 8, !tbaa !67
  store ptr %20, ptr %9, align 8, !tbaa !68
  call void @llvm.lifetime.start.p0(i64 8, ptr %10) #6
  %21 = load ptr, ptr %7, align 8, !tbaa !65
  store ptr %21, ptr %10, align 8, !tbaa !65
  call void @llvm.lifetime.start.p0(i64 8, ptr %11) #6
  %22 = load ptr, ptr %8, align 8, !tbaa !33
  store ptr %22, ptr %11, align 8, !tbaa !33
  call void @llvm.lifetime.start.p0(i64 32, ptr %12) #6
  call void @llvm.lifetime.start.p0(i64 16, ptr %13) #6
  call void @llvm.lifetime.start.p0(i64 32, ptr %14) #6
  call void @llvm.lifetime.start.p0(i64 32, ptr %15) #6
  call void @llvm.lifetime.start.p0(i64 8, ptr %16) #6
  call void @llvm.lifetime.start.p0(i64 8, ptr %17) #6
  %23 = load ptr, ptr %5, align 8, !tbaa !29
  store ptr %23, ptr %5, align 8, !tbaa !29
  %24 = load ptr, ptr %10, align 8, !tbaa !65
  %25 = icmp ne ptr %24, null
  br i1 %25, label %31, label %26

26:                                               ; preds = %4
  %27 = getelementptr inbounds nuw %struct.FT_Matrix_, ptr %12, i32 0, i32 0
  store i64 65536, ptr %27, align 8, !tbaa !70
  %28 = getelementptr inbounds nuw %struct.FT_Matrix_, ptr %12, i32 0, i32 1
  store i64 0, ptr %28, align 8, !tbaa !71
  %29 = getelementptr inbounds nuw %struct.FT_Matrix_, ptr %12, i32 0, i32 2
  store i64 0, ptr %29, align 8, !tbaa !72
  %30 = getelementptr inbounds nuw %struct.FT_Matrix_, ptr %12, i32 0, i32 3
  store i64 65536, ptr %30, align 8, !tbaa !73
  store ptr %12, ptr %10, align 8, !tbaa !65
  br label %31

31:                                               ; preds = %26, %4
  %32 = load ptr, ptr %11, align 8, !tbaa !33
  %33 = icmp ne ptr %32, null
  br i1 %33, label %37, label %34

34:                                               ; preds = %31
  %35 = getelementptr inbounds nuw %struct.FT_Vector_, ptr %13, i32 0, i32 0
  store i64 0, ptr %35, align 8, !tbaa !74
  %36 = getelementptr inbounds nuw %struct.FT_Vector_, ptr %13, i32 0, i32 1
  store i64 0, ptr %36, align 8, !tbaa !75
  store ptr %13, ptr %11, align 8, !tbaa !33
  br label %37

37:                                               ; preds = %34, %31
  %38 = load ptr, ptr %9, align 8, !tbaa !68
  %39 = getelementptr inbounds nuw %struct.FT_SVG_DocumentRec_, ptr %38, i32 0, i32 6
  call void @llvm.memcpy.p0.p0.i64(ptr align 8 %14, ptr align 8 %39, i64 32, i1 false), !tbaa.struct !76
  %40 = load ptr, ptr %10, align 8, !tbaa !65
  call void @llvm.memcpy.p0.p0.i64(ptr align 8 %15, ptr align 8 %40, i64 32, i1 false), !tbaa.struct !76
  call void @FT_Matrix_Multiply(ptr noundef %15, ptr noundef %14)
  %41 = load ptr, ptr %10, align 8, !tbaa !65
  %42 = getelementptr inbounds nuw %struct.FT_Matrix_, ptr %41, i32 0, i32 0
  %43 = load i64, ptr %42, align 8, !tbaa !70
  %44 = trunc i64 %43 to i32
  %45 = load ptr, ptr %9, align 8, !tbaa !68
  %46 = getelementptr inbounds nuw %struct.FT_SVG_DocumentRec_, ptr %45, i32 0, i32 7
  %47 = getelementptr inbounds nuw %struct.FT_Vector_, ptr %46, i32 0, i32 0
  %48 = load i64, ptr %47, align 8, !tbaa !77
  %49 = trunc i64 %48 to i32
  %50 = call i32 @FT_MulFix_x86_64(i32 noundef %44, i32 noundef %49)
  %51 = sext i32 %50 to i64
  %52 = load ptr, ptr %10, align 8, !tbaa !65
  %53 = getelementptr inbounds nuw %struct.FT_Matrix_, ptr %52, i32 0, i32 1
  %54 = load i64, ptr %53, align 8, !tbaa !71
  %55 = trunc i64 %54 to i32
  %56 = load ptr, ptr %9, align 8, !tbaa !68
  %57 = getelementptr inbounds nuw %struct.FT_SVG_DocumentRec_, ptr %56, i32 0, i32 7
  %58 = getelementptr inbounds nuw %struct.FT_Vector_, ptr %57, i32 0, i32 1
  %59 = load i64, ptr %58, align 8, !tbaa !80
  %60 = trunc i64 %59 to i32
  %61 = call i32 @FT_MulFix_x86_64(i32 noundef %55, i32 noundef %60)
  %62 = sext i32 %61 to i64
  %63 = add i64 %51, %62
  %64 = load ptr, ptr %11, align 8, !tbaa !33
  %65 = getelementptr inbounds nuw %struct.FT_Vector_, ptr %64, i32 0, i32 0
  %66 = load i64, ptr %65, align 8, !tbaa !74
  %67 = add i64 %63, %66
  store i64 %67, ptr %16, align 8, !tbaa !57
  %68 = load ptr, ptr %10, align 8, !tbaa !65
  %69 = getelementptr inbounds nuw %struct.FT_Matrix_, ptr %68, i32 0, i32 2
  %70 = load i64, ptr %69, align 8, !tbaa !72
  %71 = trunc i64 %70 to i32
  %72 = load ptr, ptr %9, align 8, !tbaa !68
  %73 = getelementptr inbounds nuw %struct.FT_SVG_DocumentRec_, ptr %72, i32 0, i32 7
  %74 = getelementptr inbounds nuw %struct.FT_Vector_, ptr %73, i32 0, i32 0
  %75 = load i64, ptr %74, align 8, !tbaa !77
  %76 = trunc i64 %75 to i32
  %77 = call i32 @FT_MulFix_x86_64(i32 noundef %71, i32 noundef %76)
  %78 = sext i32 %77 to i64
  %79 = load ptr, ptr %10, align 8, !tbaa !65
  %80 = getelementptr inbounds nuw %struct.FT_Matrix_, ptr %79, i32 0, i32 3
  %81 = load i64, ptr %80, align 8, !tbaa !73
  %82 = trunc i64 %81 to i32
  %83 = load ptr, ptr %9, align 8, !tbaa !68
  %84 = getelementptr inbounds nuw %struct.FT_SVG_DocumentRec_, ptr %83, i32 0, i32 7
  %85 = getelementptr inbounds nuw %struct.FT_Vector_, ptr %84, i32 0, i32 1
  %86 = load i64, ptr %85, align 8, !tbaa !80
  %87 = trunc i64 %86 to i32
  %88 = call i32 @FT_MulFix_x86_64(i32 noundef %82, i32 noundef %87)
  %89 = sext i32 %88 to i64
  %90 = add i64 %78, %89
  %91 = load ptr, ptr %11, align 8, !tbaa !33
  %92 = getelementptr inbounds nuw %struct.FT_Vector_, ptr %91, i32 0, i32 1
  %93 = load i64, ptr %92, align 8, !tbaa !75
  %94 = add i64 %90, %93
  store i64 %94, ptr %17, align 8, !tbaa !57
  %95 = load i64, ptr %16, align 8, !tbaa !57
  %96 = load ptr, ptr %9, align 8, !tbaa !68
  %97 = getelementptr inbounds nuw %struct.FT_SVG_DocumentRec_, ptr %96, i32 0, i32 7
  %98 = getelementptr inbounds nuw %struct.FT_Vector_, ptr %97, i32 0, i32 0
  store i64 %95, ptr %98, align 8, !tbaa !77
  %99 = load i64, ptr %17, align 8, !tbaa !57
  %100 = load ptr, ptr %9, align 8, !tbaa !68
  %101 = getelementptr inbounds nuw %struct.FT_SVG_DocumentRec_, ptr %100, i32 0, i32 7
  %102 = getelementptr inbounds nuw %struct.FT_Vector_, ptr %101, i32 0, i32 1
  store i64 %99, ptr %102, align 8, !tbaa !80
  %103 = load ptr, ptr %9, align 8, !tbaa !68
  %104 = getelementptr inbounds nuw %struct.FT_SVG_DocumentRec_, ptr %103, i32 0, i32 6
  call void @llvm.memcpy.p0.p0.i64(ptr align 8 %104, ptr align 8 %14, i64 32, i1 false), !tbaa.struct !76
  call void @llvm.lifetime.end.p0(i64 8, ptr %17) #6
  call void @llvm.lifetime.end.p0(i64 8, ptr %16) #6
  call void @llvm.lifetime.end.p0(i64 32, ptr %15) #6
  call void @llvm.lifetime.end.p0(i64 32, ptr %14) #6
  call void @llvm.lifetime.end.p0(i64 16, ptr %13) #6
  call void @llvm.lifetime.end.p0(i64 32, ptr %12) #6
  call void @llvm.lifetime.end.p0(i64 8, ptr %11) #6
  call void @llvm.lifetime.end.p0(i64 8, ptr %10) #6
  call void @llvm.lifetime.end.p0(i64 8, ptr %9) #6
  ret i32 0
}