; Function Attrs: nounwind uwtable
define internal noundef i32 @ft_svg_transform(ptr readnone captures(none) %0, ptr noundef readonly captures(none) %1, ptr noundef readonly %2, ptr noundef readonly %3) #1 {
  %5 = alloca %struct.FT_Matrix_, align 8
  %.sroa.0 = alloca i64, align 8
  %.sroa.4 = alloca i64, align 8
  %6 = alloca %struct.FT_Matrix_, align 8
  %7 = alloca %struct.FT_Matrix_, align 8
  %8 = getelementptr inbounds nuw i8, ptr %1, i64 288
  %9 = load ptr, ptr %8, align 8, !tbaa !52
  call void @llvm.lifetime.start.p0(i64 32, ptr nonnull %5) #8
  call void @llvm.lifetime.start.p0(i64 8, ptr nonnull %.sroa.0)
  call void @llvm.lifetime.start.p0(i64 8, ptr nonnull %.sroa.4)
  call void @llvm.lifetime.start.p0(i64 32, ptr nonnull %6) #8
  call void @llvm.lifetime.start.p0(i64 32, ptr nonnull %7) #8
  %.not = icmp eq ptr %2, null
  %.0.sroa.gep25 = getelementptr inbounds nuw i8, ptr %2, i64 8
  %.0.sroa.gep28 = getelementptr inbounds nuw i8, ptr %2, i64 16
  %.0.sroa.gep31 = getelementptr inbounds nuw i8, ptr %2, i64 24
  %.022.sroa.gep35 = getelementptr inbounds nuw i8, ptr %3, i64 8
  br i1 %.not, label %10, label %11

10:                                               ; preds = %4
  %.0.sroa.gep32 = getelementptr inbounds nuw i8, ptr %5, i64 24
  %.0.sroa.gep29 = getelementptr inbounds nuw i8, ptr %5, i64 16
  %.0.sroa.gep26 = getelementptr inbounds nuw i8, ptr %5, i64 8
  store i64 65536, ptr %5, align 8, !tbaa !53
  call void @llvm.memset.p0.i64(ptr noundef nonnull align 8 dereferenceable(16) %.0.sroa.gep26, i8 0, i64 16, i1 false)
  store i64 65536, ptr %.0.sroa.gep32, align 8, !tbaa !54
  br label %11

11:                                               ; preds = %10, %4
  %.0.sroa.phi24 = phi ptr [ %.0.sroa.gep25, %4 ], [ %.0.sroa.gep26, %10 ]
  %.0.sroa.phi27 = phi ptr [ %.0.sroa.gep28, %4 ], [ %.0.sroa.gep29, %10 ]
  %.0.sroa.phi30 = phi ptr [ %.0.sroa.gep31, %4 ], [ %.0.sroa.gep32, %10 ]
  %.0 = phi ptr [ %2, %4 ], [ %5, %10 ]
  %.not39 = icmp eq ptr %3, null
  br i1 %.not39, label %12, label %13

12:                                               ; preds = %11
  store i64 0, ptr %.sroa.0, align 8, !tbaa !55
  store i64 0, ptr %.sroa.4, align 8, !tbaa !56
  br label %13

13:                                               ; preds = %12, %11
  %.022.sroa.phi = phi ptr [ %3, %11 ], [ %.sroa.0, %12 ]
  %.022.sroa.phi34 = phi ptr [ %.022.sroa.gep35, %11 ], [ %.sroa.4, %12 ]
  %14 = getelementptr inbounds nuw i8, ptr %9, i64 80
  call void @llvm.memcpy.p0.p0.i64(ptr noundef nonnull align 8 dereferenceable(32) %6, ptr noundef nonnull align 8 dereferenceable(32) %14, i64 32, i1 false), !tbaa.struct !57
  call void @llvm.memcpy.p0.p0.i64(ptr noundef nonnull align 8 dereferenceable(32) %7, ptr noundef nonnull align 8 dereferenceable(32) %.0, i64 32, i1 false), !tbaa.struct !57
  call void @FT_Matrix_Multiply(ptr noundef nonnull %7, ptr noundef nonnull %6) #8
  %15 = load i64, ptr %.0, align 8, !tbaa !53
  %16 = getelementptr inbounds nuw i8, ptr %9, i64 112
  %17 = load i64, ptr %16, align 8, !tbaa !59
  %sext = shl i64 %15, 32
  %18 = ashr exact i64 %sext, 32
  %sext40 = shl i64 %17, 32
  %19 = ashr exact i64 %sext40, 32
  %20 = mul nsw i64 %19, %18
  %21 = ashr i64 %20, 63
  %22 = add nsw i64 %20, 32768
  %23 = add nsw i64 %22, %21
  %24 = shl i64 %23, 16
  %25 = ashr i64 %24, 32
  %26 = load i64, ptr %.0.sroa.phi24, align 8, !tbaa !62
  %27 = getelementptr inbounds nuw i8, ptr %9, i64 120
  %28 = load i64, ptr %27, align 8, !tbaa !63
  %sext42 = shl i64 %26, 32
  %29 = ashr exact i64 %sext42, 32
  %sext43 = shl i64 %28, 32
  %30 = ashr exact i64 %sext43, 32
  %31 = mul nsw i64 %30, %29
  %32 = ashr i64 %31, 63
  %33 = add nsw i64 %31, 32768
  %34 = add nsw i64 %33, %32
  %35 = shl i64 %34, 16
  %36 = ashr i64 %35, 32
  %37 = load i64, ptr %.022.sroa.phi, align 8, !tbaa !55
  %38 = add i64 %25, %37
  %39 = add i64 %38, %36
  %40 = load i64, ptr %.0.sroa.phi27, align 8, !tbaa !64
  %sext45 = shl i64 %40, 32
  %41 = ashr exact i64 %sext45, 32
  %42 = mul nsw i64 %41, %19
  %43 = ashr i64 %42, 63
  %44 = add nsw i64 %42, 32768
  %45 = add nsw i64 %44, %43
  %46 = shl i64 %45, 16
  %47 = ashr i64 %46, 32
  %48 = load i64, ptr %.0.sroa.phi30, align 8, !tbaa !54
  %sext47 = shl i64 %48, 32
  %49 = ashr exact i64 %sext47, 32
  %50 = mul nsw i64 %49, %30
  %51 = ashr i64 %50, 63
  %52 = add nsw i64 %50, 32768
  %53 = add nsw i64 %52, %51
  %54 = shl i64 %53, 16
  %55 = ashr i64 %54, 32
  %56 = load i64, ptr %.022.sroa.phi34, align 8, !tbaa !56
  %57 = add i64 %47, %56
  %58 = add i64 %57, %55
  store i64 %39, ptr %16, align 8, !tbaa !59
  store i64 %58, ptr %27, align 8, !tbaa !63
  call void @llvm.memcpy.p0.p0.i64(ptr noundef nonnull align 8 dereferenceable(32) %14, ptr noundef nonnull align 8 dereferenceable(32) %6, i64 32, i1 false), !tbaa.struct !57
  call void @llvm.lifetime.end.p0(i64 32, ptr nonnull %7) #8
  call void @llvm.lifetime.end.p0(i64 32, ptr nonnull %6) #8
  call void @llvm.lifetime.end.p0(i64 8, ptr nonnull %.sroa.0)
  call void @llvm.lifetime.end.p0(i64 8, ptr nonnull %.sroa.4)
  call void @llvm.lifetime.end.p0(i64 32, ptr nonnull %5) #8
  ret i32 0
}